; Function Attrs: mustprogress nofree norecurse nosync nounwind null_pointer_is_valid sspstrong willreturn memory(argmem: read) uwtable
define hidden range(i32 -1, 2) i32 @blf_logcontainers_search(ptr noundef readonly captures(none) %0, ptr noundef readonly captures(none) %1) #0 {
  %3 = load i64, ptr %1, align 8
  %4 = getelementptr inbounds nuw i8, ptr %0, i64 24
  %5 = load i64, ptr %4, align 8
  %6 = icmp ugt i64 %5, %3
  br i1 %6, label %11, label %7

7:                                                ; preds = %2
  %8 = getelementptr inbounds nuw i8, ptr %0, i64 32
  %9 = load i64, ptr %8, align 8
  %10 = add i64 %9, %5
  %.not = icmp uge i64 %3, %10
  %. = sext i1 %.not to i32
  br label %11

11:                                               ; preds = %7, %2
  %.0 = phi i32 [ 1, %2 ], [ %., %7 ]
  ret i32 %.0
}